ccopy_reg
_reconstructor
p0
(cgoogle.oauth2.credentials
Credentials
p1
c__builtin__
object
p2
Ntp3
Rp4
(dp5
S'_quota_project_id'
p6
NsS'_token_uri'
p7
Vhttps://oauth2.googleapis.com/token
p8
sS'_client_secret'
p9
VPO1EFGpl7DICgWw0w6XmDYrj
p10
sS'_id_token'
p11
NsS'token'
p12
Vya29.ImC6B0muJo6ajC7lYc6pZisAhCDlb3APmLNtvkbD3ZMNDEbf8fSOWUh6qndj7MdgRqGzHGHPIeoawEtRby3Lu4evgsh8GA7cFdod4fs7qQpQ-VkccZFD8o4SOgQhH6oSkyQ
p13
sS'_refresh_token'
p14
V1//0f5FUFI1w22arCgYIARAAGA8SNwF-L9IrRi1EvRpET9ERb3cJgdSNt2rlQ5gh16m8hqDY6CKwW9QiD_adH1DEIBRAFtI7ZUY9pO4
p15
sS'_scopes'
p16
(lp17
S'https://www.googleapis.com/auth/calendar'
p18
asS'_client_id'
p19
V672402147567-98ohscd09vooh2deusn433plhdvlumnj.apps.googleusercontent.com
p20
sS'expiry'
p21
cdatetime
datetime
p22
(S'\x07\xe4\x01\x13\n2\t\x0bT*'
p23
tp24
Rp25
sb.